target datalayout = "e-m:e-p270:32:32-p271:32:32-p272:64:64-i64:64-i128:128-f80:128-n8:16:32:64-S128"
target triple = "x86_64-pc-linux-gnu"

; Function Attrs: nounwind uwtable
define hidden void @mbedtls_des_key_set_parity(ptr noundef %0) #0 {
  %2 = alloca ptr, align 8
  %3 = alloca i32, align 4
  store ptr %0, ptr %2, align 8, !tbaa !10
  call void @llvm.lifetime.start.p0(i64 4, ptr %3) #8
  store i32 0, ptr %3, align 4, !tbaa !12
  br label %4

4:                                                ; preds = %22, %1
  %5 = load i32, ptr %3, align 4, !tbaa !12
  %6 = icmp slt i32 %5, 8
  br i1 %6, label %7, label %25

7:                                                ; preds = %4
  %8 = load ptr, ptr %2, align 8, !tbaa !10
  %9 = load i32, ptr %3, align 4, !tbaa !12
  %10 = sext i32 %9 to i64
  %11 = getelementptr inbounds i8, ptr %8, i64 %10
  %12 = load i8, ptr %11, align 1, !tbaa !14
  %13 = zext i8 %12 to i32
  %14 = sdiv i32 %13, 2
  %15 = sext i32 %14 to i64
  %16 = getelementptr inbounds [128 x i8], ptr @odd_parity_table, i64 0, i64 %15
  %17 = load i8, ptr %16, align 1, !tbaa !14
  %18 = load ptr, ptr %2, align 8, !tbaa !10
  %19 = load i32, ptr %3, align 4, !tbaa !12
  %20 = sext i32 %19 to i64
  %21 = getelementptr inbounds i8, ptr %18, i64 %20
  store i8 %17, ptr %21, align 1, !tbaa !14
  br label %22

22:                                               ; preds = %7
  %23 = load i32, ptr %3, align 4, !tbaa !12
  %24 = add nsw i32 %23, 1
  store i32 %24, ptr %3, align 4, !tbaa !12
  br label %4, !llvm.loop !15

25:                                               ; preds = %4
  call void @llvm.lifetime.end.p0(i64 4, ptr %3) #8
  ret void
}