; Function Attrs: nofree norecurse nosync nounwind memory(argmem: readwrite) uwtable
define hidden void @mbedtls_des_key_set_parity(ptr noundef captures(none) %0) local_unnamed_addr #4 {
  br label %2

2:                                                ; preds = %1, %2
  %indvars.iv = phi i64 [ 0, %1 ], [ %indvars.iv.next, %2 ]
  %3 = getelementptr inbounds nuw i8, ptr %0, i64 %indvars.iv
  %4 = load i8, ptr %3, align 1, !tbaa !3
  %5 = lshr i8 %4, 1
  %6 = zext nneg i8 %5 to i64
  %7 = getelementptr inbounds nuw [128 x i8], ptr @odd_parity_table, i64 0, i64 %6
  %8 = load i8, ptr %7, align 1, !tbaa !3
  store i8 %8, ptr %3, align 1, !tbaa !3
  %indvars.iv.next = add nuw nsw i64 %indvars.iv, 1
  %exitcond.not = icmp eq i64 %indvars.iv.next, 8
  br i1 %exitcond.not, label %9, label %2, !llvm.loop !6

9:                                                ; preds = %2
  ret void
}